target datalayout = "e-m:e-p270:32:32-p271:32:32-p272:64:64-i64:64-i128:128-f80:128-n8:16:32:64-S128"
target triple = "x86_64-pc-linux-gnu"

%struct.H5D_t = type { %struct.H5O_loc_t, %struct.H5G_name_t, ptr }
%struct.H5O_loc_t = type { ptr, i64, i8 }
%struct.H5G_name_t = type { ptr, ptr, i32 }
%struct.H5D_shared_t = type { i64, i8, i64, ptr, ptr, i64, i64, %struct.H5D_dcpl_cache_t, %struct.H5O_layout_t, i8, i32, [32 x i64], [32 x i64], [32 x i64], %struct.anon.6, %struct.H5D_append_flush_t, ptr, ptr }
%struct.H5D_dcpl_cache_t = type { %struct.H5O_fill_t, %struct.H5O_pline_t, %struct.H5O_efl_t }
%struct.H5O_fill_t = type { %struct.H5O_shared_t, i32, ptr, i64, ptr, i32, i32, i8 }
%struct.H5O_shared_t = type { i32, ptr, i32, %union.anon.5 }
%union.anon.5 = type { %struct.H5O_mesg_loc_t }
%struct.H5O_mesg_loc_t = type { i32, i64 }
%struct.H5O_pline_t = type { %struct.H5O_shared_t, i32, i64, i64, ptr }
%struct.H5O_efl_t = type { i64, i64, i64, ptr }
%struct.H5O_layout_t = type { i32, i32, ptr, %union.anon, %struct.H5O_storage_t }
%union.anon = type { %struct.H5O_layout_chunk_t }
%struct.H5O_layout_chunk_t = type { i32, i8, i32, [33 x i32], i32, i32, i64, i64, [33 x i64], [33 x i64], [33 x i64], [33 x i64], %union.anon.0 }
%union.anon.0 = type { %struct.H5O_layout_chunk_earray_t }
%struct.H5O_layout_chunk_earray_t = type { %struct.anon.1, i32, [33 x i32], [33 x i64], [33 x i64] }
%struct.anon.1 = type { i8, i8, i8, i8, i8 }
%struct.H5O_storage_t = type { i32, %union.anon.3 }
%union.anon.3 = type { %struct.H5O_storage_virtual_t }
%struct.H5O_storage_virtual_t = type { %struct.H5HG_t, i64, ptr, i64, [32 x i64], i32, i64, i64, i64, i8 }
%struct.H5HG_t = type { i64, i64 }
%struct.anon.6 = type { %struct.H5D_rdcdc_t, %struct.H5D_rdcc_t }
%struct.H5D_rdcdc_t = type { ptr, i64, i64, i64, i8 }
%struct.H5D_rdcc_t = type { %struct.anon.7, i64, i64, double, ptr, ptr, ptr, i64, i32, %struct.H5D_chunk_cached_t, ptr, ptr, ptr, ptr, [32 x i64], [32 x i64], [32 x i32] }
%struct.anon.7 = type { i32, i32, i32, i32 }
%struct.H5D_chunk_cached_t = type { i8, [33 x i64], i64, i32, i64, i32 }
%struct.H5D_append_flush_t = type { i32, [32 x i64], ptr, ptr }
%struct.H5O_storage_virtual_ent_t = type { %struct.H5O_storage_virtual_srcdset_t, ptr, ptr, ptr, ptr, i64, i64, i64, i64, ptr, i64, i64, ptr, i64, i64, i32, i32, i64, i64, i64, i64, i32, i32 }
%struct.H5O_storage_virtual_srcdset_t = type { ptr, ptr, ptr, ptr, ptr, ptr, i8, ptr }

@H5D_init_g = external global i8, align 1
@H5_libterm_g = external global i8, align 1
@.str.1 = private unnamed_addr constant [104 x i8] c"generated/home/dtcxzyw/WorkSpace/Projects/compilers/llvm-opt-benchmark/bench/hdf5/hdf5/src/H5Dvirtual.c\00", align 1
@H5E_DATASET_g = external global i64, align 8
@H5E_WRITEERROR_g = external global i64, align 8
@H5E_READERROR_g = external global i64, align 8
@__func__.H5D__virtual_flush = private unnamed_addr constant [19 x i8] c"H5D__virtual_flush\00", align 1
@.str.106 = private unnamed_addr constant [31 x i8] c"unable to flush source dataset\00", align 1

; Function Attrs: nounwind uwtable
define internal i32 @H5D__virtual_flush(ptr noundef %0) #0 {
  %2 = alloca ptr, align 8
  %3 = alloca ptr, align 8
  %4 = alloca i64, align 8
  %5 = alloca i64, align 8
  %6 = alloca i32, align 4
  %7 = alloca i8, align 1
  store ptr %0, ptr %2, align 8, !tbaa !8
  call void @llvm.lifetime.start.p0(i64 8, ptr %3) #10
  call void @llvm.lifetime.start.p0(i64 8, ptr %4) #10
  call void @llvm.lifetime.start.p0(i64 8, ptr %5) #10
  call void @llvm.lifetime.start.p0(i64 4, ptr %6) #10
  store i32 0, ptr %6, align 4, !tbaa !12
  call void @llvm.lifetime.start.p0(i64 1, ptr %7) #10
  store i8 0, ptr %7, align 1, !tbaa !14
  %8 = load i8, ptr @H5D_init_g, align 1, !tbaa !14, !range !16, !noundef !17
  %9 = trunc i8 %8 to i1
  br i1 %9, label %14, label %10

10:                                               ; preds = %1
  %11 = load i8, ptr @H5_libterm_g, align 1, !tbaa !14, !range !16, !noundef !17
  %12 = trunc i8 %11 to i1
  %13 = xor i1 %12, true
  br label %14

14:                                               ; preds = %10, %1
  %15 = phi i1 [ true, %1 ], [ %13, %10 ]
  %16 = xor i1 %15, true
  %17 = xor i1 %16, true
  %18 = zext i1 %17 to i32
  %19 = sext i32 %18 to i64
  %20 = call i64 @llvm.expect.i64(i64 %19, i64 1)
  %21 = icmp ne i64 %20, 0
  br i1 %21, label %22, label %164

22:                                               ; preds = %14
  %23 = load ptr, ptr %2, align 8, !tbaa !8
  %24 = getelementptr inbounds nuw %struct.H5D_t, ptr %23, i32 0, i32 2
  %25 = load ptr, ptr %24, align 8, !tbaa !18
  %26 = getelementptr inbounds nuw %struct.H5D_shared_t, ptr %25, i32 0, i32 8
  %27 = getelementptr inbounds nuw %struct.H5O_layout_t, ptr %26, i32 0, i32 4
  %28 = getelementptr inbounds nuw %struct.H5O_storage_t, ptr %27, i32 0, i32 1
  store ptr %28, ptr %3, align 8, !tbaa !24
  store i64 0, ptr %4, align 8, !tbaa !10
  br label %29

29:                                               ; preds = %159, %22
  %30 = load i64, ptr %4, align 8, !tbaa !10
  %31 = load ptr, ptr %3, align 8, !tbaa !24
  %32 = getelementptr inbounds nuw %struct.H5O_storage_virtual_t, ptr %31, i32 0, i32 1
  %33 = load i64, ptr %32, align 8, !tbaa !26
  %34 = icmp ult i64 %30, %33
  br i1 %34, label %35, label %162

35:                                               ; preds = %29
  %36 = load ptr, ptr %3, align 8, !tbaa !24
  %37 = getelementptr inbounds nuw %struct.H5O_storage_virtual_t, ptr %36, i32 0, i32 2
  %38 = load ptr, ptr %37, align 8, !tbaa !30
  %39 = load i64, ptr %4, align 8, !tbaa !10
  %40 = getelementptr inbounds nuw %struct.H5O_storage_virtual_ent_t, ptr %38, i64 %39
  %41 = getelementptr inbounds nuw %struct.H5O_storage_virtual_ent_t, ptr %40, i32 0, i32 11
  %42 = load i64, ptr %41, align 8, !tbaa !77
  %43 = icmp ne i64 %42, 0
  br i1 %43, label %53, label %44

44:                                               ; preds = %35
  %45 = load ptr, ptr %3, align 8, !tbaa !24
  %46 = getelementptr inbounds nuw %struct.H5O_storage_virtual_t, ptr %45, i32 0, i32 2
  %47 = load ptr, ptr %46, align 8, !tbaa !30
  %48 = load i64, ptr %4, align 8, !tbaa !10
  %49 = getelementptr inbounds nuw %struct.H5O_storage_virtual_ent_t, ptr %47, i64 %48
  %50 = getelementptr inbounds nuw %struct.H5O_storage_virtual_ent_t, ptr %49, i32 0, i32 14
  %51 = load i64, ptr %50, align 8, !tbaa !78
  %52 = icmp ne i64 %51, 0
  br i1 %52, label %53, label %116

53:                                               ; preds = %44, %35
  store i64 0, ptr %5, align 8, !tbaa !10
  br label %54

54:                                               ; preds = %112, %53
  %55 = load i64, ptr %5, align 8, !tbaa !10
  %56 = load ptr, ptr %3, align 8, !tbaa !24
  %57 = getelementptr inbounds nuw %struct.H5O_storage_virtual_t, ptr %56, i32 0, i32 2
  %58 = load ptr, ptr %57, align 8, !tbaa !30
  %59 = load i64, ptr %4, align 8, !tbaa !10
  %60 = getelementptr inbounds nuw %struct.H5O_storage_virtual_ent_t, ptr %58, i64 %59
  %61 = getelementptr inbounds nuw %struct.H5O_storage_virtual_ent_t, ptr %60, i32 0, i32 6
  %62 = load i64, ptr %61, align 8, !tbaa !124
  %63 = icmp ult i64 %55, %62
  br i1 %63, label %64, label %115

64:                                               ; preds = %54
  %65 = load ptr, ptr %3, align 8, !tbaa !24
  %66 = getelementptr inbounds nuw %struct.H5O_storage_virtual_t, ptr %65, i32 0, i32 2
  %67 = load ptr, ptr %66, align 8, !tbaa !30
  %68 = load i64, ptr %4, align 8, !tbaa !10
  %69 = getelementptr inbounds nuw %struct.H5O_storage_virtual_ent_t, ptr %67, i64 %68
  %70 = getelementptr inbounds nuw %struct.H5O_storage_virtual_ent_t, ptr %69, i32 0, i32 4
  %71 = load ptr, ptr %70, align 8, !tbaa !81
  %72 = load i64, ptr %5, align 8, !tbaa !10
  %73 = getelementptr inbounds nuw %struct.H5O_storage_virtual_srcdset_t, ptr %71, i64 %72
  %74 = getelementptr inbounds nuw %struct.H5O_storage_virtual_srcdset_t, ptr %73, i32 0, i32 5
  %75 = load ptr, ptr %74, align 8, !tbaa !82
  %76 = icmp ne ptr %75, null
  br i1 %76, label %77, label %111

77:                                               ; preds = %64
  %78 = load ptr, ptr %3, align 8, !tbaa !24
  %79 = getelementptr inbounds nuw %struct.H5O_storage_virtual_t, ptr %78, i32 0, i32 2
  %80 = load ptr, ptr %79, align 8, !tbaa !30
  %81 = load i64, ptr %4, align 8, !tbaa !10
  %82 = getelementptr inbounds nuw %struct.H5O_storage_virtual_ent_t, ptr %80, i64 %81
  %83 = getelementptr inbounds nuw %struct.H5O_storage_virtual_ent_t, ptr %82, i32 0, i32 4
  %84 = load ptr, ptr %83, align 8, !tbaa !81
  %85 = load i64, ptr %5, align 8, !tbaa !10
  %86 = getelementptr inbounds nuw %struct.H5O_storage_virtual_srcdset_t, ptr %84, i64 %85
  %87 = getelementptr inbounds nuw %struct.H5O_storage_virtual_srcdset_t, ptr %86, i32 0, i32 5
  %88 = load ptr, ptr %87, align 8, !tbaa !82
  %89 = call i32 @H5D__flush_real(ptr noundef %88)
  %90 = icmp slt i32 %89, 0
  br i1 %90, label %91, label %110

91:                                               ; preds = %77
  br label %92

92:                                               ; preds = %91
  br label %93

93:                                               ; preds = %92
  br label %94

94:                                               ; preds = %93
  %95 = load i64, ptr @H5E_DATASET_g, align 8, !tbaa !10
  %96 = load i64, ptr @H5E_WRITEERROR_g, align 8, !tbaa !10
  %97 = call i32 (ptr, ptr, i32, i64, i64, ptr, ...) @H5E_printf_stack(ptr noundef @.str.1, ptr noundef @__func__.H5D__virtual_flush, i32 noundef 3016, i64 noundef %95, i64 noundef %96, ptr noundef @.str.106)
  br label %98

98:                                               ; preds = %94
  br label %99

99:                                               ; preds = %98
  store i8 1, ptr %7, align 1, !tbaa !14
  %100 = load i8, ptr %7, align 1, !tbaa !14, !range !16, !noundef !17
  %101 = trunc i8 %100 to i1
  %102 = zext i1 %101 to i8
  store i8 %102, ptr %7, align 1, !tbaa !14
  br label %103

103:                                              ; preds = %99
  br label %104

104:                                              ; preds = %103
  br label %105

105:                                              ; preds = %104
  store i32 -1, ptr %6, align 4, !tbaa !12
  br label %163

106:                                              ; No predecessors!
  br label %107

107:                                              ; preds = %106
  br label %108

108:                                              ; preds = %107
  br label %109

109:                                              ; preds = %108
  br label %110

110:                                              ; preds = %109, %77
  br label %111

111:                                              ; preds = %110, %64
  br label %112

112:                                              ; preds = %111
  %113 = load i64, ptr %5, align 8, !tbaa !10
  %114 = add i64 %113, 1
  store i64 %114, ptr %5, align 8, !tbaa !10
  br label %54, !llvm.loop !125

115:                                              ; preds = %54
  br label %158

116:                                              ; preds = %44
  %117 = load ptr, ptr %3, align 8, !tbaa !24
  %118 = getelementptr inbounds nuw %struct.H5O_storage_virtual_t, ptr %117, i32 0, i32 2
  %119 = load ptr, ptr %118, align 8, !tbaa !30
  %120 = load i64, ptr %4, align 8, !tbaa !10
  %121 = getelementptr inbounds nuw %struct.H5O_storage_virtual_ent_t, ptr %119, i64 %120
  %122 = getelementptr inbounds nuw %struct.H5O_storage_virtual_ent_t, ptr %121, i32 0, i32 0
  %123 = getelementptr inbounds nuw %struct.H5O_storage_virtual_srcdset_t, ptr %122, i32 0, i32 5
  %124 = load ptr, ptr %123, align 8, !tbaa !87
  %125 = icmp ne ptr %124, null
  br i1 %125, label %126, label %157

126:                                              ; preds = %116
  %127 = load ptr, ptr %3, align 8, !tbaa !24
  %128 = getelementptr inbounds nuw %struct.H5O_storage_virtual_t, ptr %127, i32 0, i32 2
  %129 = load ptr, ptr %128, align 8, !tbaa !30
  %130 = load i64, ptr %4, align 8, !tbaa !10
  %131 = getelementptr inbounds nuw %struct.H5O_storage_virtual_ent_t, ptr %129, i64 %130
  %132 = getelementptr inbounds nuw %struct.H5O_storage_virtual_ent_t, ptr %131, i32 0, i32 0
  %133 = getelementptr inbounds nuw %struct.H5O_storage_virtual_srcdset_t, ptr %132, i32 0, i32 5
  %134 = load ptr, ptr %133, align 8, !tbaa !87
  %135 = call i32 @H5D__flush_real(ptr noundef %134)
  %136 = icmp slt i32 %135, 0
  br i1 %136, label %137, label %156

137:                                              ; preds = %126
  br label %138

138:                                              ; preds = %137
  br label %139

139:                                              ; preds = %138
  br label %140

140:                                              ; preds = %139
  %141 = load i64, ptr @H5E_DATASET_g, align 8, !tbaa !10
  %142 = load i64, ptr @H5E_READERROR_g, align 8, !tbaa !10
  %143 = call i32 (ptr, ptr, i32, i64, i64, ptr, ...) @H5E_printf_stack(ptr noundef @.str.1, ptr noundef @__func__.H5D__virtual_flush, i32 noundef 3021, i64 noundef %141, i64 noundef %142, ptr noundef @.str.106)
  br label %144

144:                                              ; preds = %140
  br label %145

145:                                              ; preds = %144
  store i8 1, ptr %7, align 1, !tbaa !14
  %146 = load i8, ptr %7, align 1, !tbaa !14, !range !16, !noundef !17
  %147 = trunc i8 %146 to i1
  %148 = zext i1 %147 to i8
  store i8 %148, ptr %7, align 1, !tbaa !14
  br label %149

149:                                              ; preds = %145
  br label %150

150:                                              ; preds = %149
  br label %151

151:                                              ; preds = %150
  store i32 -1, ptr %6, align 4, !tbaa !12
  br label %163

152:                                              ; No predecessors!
  br label %153

153:                                              ; preds = %152
  br label %154

154:                                              ; preds = %153
  br label %155

155:                                              ; preds = %154
  br label %156

156:                                              ; preds = %155, %126
  br label %157

157:                                              ; preds = %156, %116
  br label %158

158:                                              ; preds = %157, %115
  br label %159

159:                                              ; preds = %158
  %160 = load i64, ptr %4, align 8, !tbaa !10
  %161 = add i64 %160, 1
  store i64 %161, ptr %4, align 8, !tbaa !10
  br label %29, !llvm.loop !126

162:                                              ; preds = %29
  br label %163

163:                                              ; preds = %162, %151, %105
  br label %164

164:                                              ; preds = %163, %14
  %165 = load i32, ptr %6, align 4, !tbaa !12
  call void @llvm.lifetime.end.p0(i64 1, ptr %7) #10
  call void @llvm.lifetime.end.p0(i64 4, ptr %6) #10
  call void @llvm.lifetime.end.p0(i64 8, ptr %5) #10
  call void @llvm.lifetime.end.p0(i64 8, ptr %4) #10
  call void @llvm.lifetime.end.p0(i64 8, ptr %3) #10
  ret i32 %165
}