; Function Attrs: nounwind uwtable
define internal range(i32 -1, 1) i32 @H5D__virtual_flush(ptr noundef readonly captures(none) %0) #0 {
  %2 = load i8, ptr @H5D_init_g, align 1, !tbaa !3, !range !7, !noundef !8
  %3 = trunc nuw i8 %2 to i1
  %4 = load i8, ptr @H5_libterm_g, align 1, !range !7
  %5 = trunc nuw i8 %4 to i1
  %6 = xor i1 %5, true
  %7 = select i1 %3, i1 true, i1 %6
  br i1 %7, label %8, label %.loopexit31, !prof !9

8:                                                ; preds = %1
  %9 = getelementptr inbounds nuw i8, ptr %0, i64 48
  %10 = load ptr, ptr %9, align 8, !tbaa !10
  %11 = getelementptr inbounds nuw i8, ptr %10, i64 2184
  %12 = load i64, ptr %11, align 8, !tbaa !20
  %.not36 = icmp eq i64 %12, 0
  br i1 %.not36, label %.loopexit31, label %.lr.ph35

.lr.ph35:                                         ; preds = %8
  %13 = getelementptr inbounds nuw i8, ptr %10, i64 2192
  br label %14

14:                                               ; preds = %.lr.ph35, %.loopexit
  %.02533 = phi i64 [ 0, %.lr.ph35 ], [ %45, %.loopexit ]
  %15 = load ptr, ptr %13, align 8, !tbaa !27
  %16 = getelementptr inbounds nuw %struct.H5O_storage_virtual_ent_t, ptr %15, i64 %.02533
  %17 = getelementptr inbounds nuw i8, ptr %16, i64 144
  %18 = load i64, ptr %17, align 8, !tbaa !69
  %.not = icmp eq i64 %18, 0
  br i1 %.not, label %19, label %22

19:                                               ; preds = %14
  %20 = getelementptr inbounds nuw i8, ptr %16, i64 168
  %21 = load i64, ptr %20, align 8, !tbaa !70
  %.not28 = icmp eq i64 %21, 0
  br i1 %.not28, label %39, label %22

22:                                               ; preds = %19, %14
  %23 = getelementptr inbounds nuw %struct.H5O_storage_virtual_ent_t, ptr %15, i64 %.02533, i32 6
  %24 = load i64, ptr %23, align 8, !tbaa !112
  %.not37 = icmp eq i64 %24, 0
  br i1 %.not37, label %.loopexit, label %.lr.ph

.lr.ph:                                           ; preds = %22, %33
  %25 = phi ptr [ %34, %33 ], [ %15, %22 ]
  %.02432 = phi i64 [ %35, %33 ], [ 0, %22 ]
  %26 = getelementptr inbounds nuw %struct.H5O_storage_virtual_ent_t, ptr %25, i64 %.02533, i32 4
  %27 = load ptr, ptr %26, align 8, !tbaa !73
  %28 = getelementptr inbounds nuw %struct.H5O_storage_virtual_srcdset_t, ptr %27, i64 %.02432, i32 5
  %29 = load ptr, ptr %28, align 8, !tbaa !74
  %.not30 = icmp eq ptr %29, null
  br i1 %.not30, label %33, label %30

30:                                               ; preds = %.lr.ph
  %31 = tail call i32 @H5D__flush_real(ptr noundef nonnull %29) #14
  %32 = icmp slt i32 %31, 0
  br i1 %32, label %.loopexit31.sink.split, label %._crit_edge

._crit_edge:                                      ; preds = %30
  %.pre = load ptr, ptr %13, align 8, !tbaa !27
  br label %33

33:                                               ; preds = %._crit_edge, %.lr.ph
  %34 = phi ptr [ %.pre, %._crit_edge ], [ %25, %.lr.ph ]
  %35 = add nuw i64 %.02432, 1
  %36 = getelementptr inbounds nuw %struct.H5O_storage_virtual_ent_t, ptr %34, i64 %.02533, i32 6
  %37 = load i64, ptr %36, align 8, !tbaa !112
  %38 = icmp ult i64 %35, %37
  br i1 %38, label %.lr.ph, label %.loopexit, !llvm.loop !113

39:                                               ; preds = %19
  %40 = getelementptr inbounds nuw i8, ptr %16, i64 40
  %41 = load ptr, ptr %40, align 8, !tbaa !79
  %.not29 = icmp eq ptr %41, null
  br i1 %.not29, label %.loopexit, label %42

42:                                               ; preds = %39
  %43 = tail call i32 @H5D__flush_real(ptr noundef nonnull %41) #14
  %44 = icmp slt i32 %43, 0
  br i1 %44, label %.loopexit31.sink.split, label %.loopexit

.loopexit:                                        ; preds = %33, %22, %42, %39
  %45 = add nuw i64 %.02533, 1
  %46 = load i64, ptr %11, align 8, !tbaa !20
  %47 = icmp ult i64 %45, %46
  br i1 %47, label %14, label %.loopexit31, !llvm.loop !114

.loopexit31.sink.split:                           ; preds = %42, %30
  %H5E_WRITEERROR_g.sink = phi ptr [ @H5E_WRITEERROR_g, %30 ], [ @H5E_READERROR_g, %42 ]
  %.sink = phi i32 [ 3016, %30 ], [ 3021, %42 ]
  %48 = load i64, ptr @H5E_DATASET_g, align 8, !tbaa !24
  %49 = load i64, ptr %H5E_WRITEERROR_g.sink, align 8, !tbaa !24
  %50 = tail call i32 (ptr, ptr, i32, i64, i64, ptr, ...) @H5E_printf_stack(ptr noundef nonnull @.str.1, ptr noundef nonnull @__func__.H5D__virtual_flush, i32 noundef %.sink, i64 noundef %48, i64 noundef %49, ptr noundef nonnull @.str.106) #14
  br label %.loopexit31

.loopexit31:                                      ; preds = %.loopexit, %.loopexit31.sink.split, %8, %1
  %.0 = phi i32 [ 0, %1 ], [ 0, %8 ], [ -1, %.loopexit31.sink.split ], [ 0, %.loopexit ]
  ret i32 %.0
}